target datalayout = "e-m:e-p270:32:32-p271:32:32-p272:64:64-i64:64-i128:128-f80:128-n8:16:32:64-S128"
target triple = "x86_64-pc-linux-gnu"

%struct.H5O_copy_search_comm_dt_key_t = type { ptr, i64 }

@H5_H5O_copy_search_comm_dt_key_t_reg_free_list = global { i8, [3 x i8], i32, i32, [4 x i8], ptr, i64, ptr } { i8 0, [3 x i8] zeroinitializer, i32 0, i32 0, [4 x i8] zeroinitializer, ptr @.str.1, i64 16, ptr null }, align 8
@H5_haddr_t_reg_free_list = global { i8, [3 x i8], i32, i32, [4 x i8], ptr, i64, ptr } { i8 0, [3 x i8] zeroinitializer, i32 0, i32 0, [4 x i8] zeroinitializer, ptr @.str.2, i64 8, ptr null }, align 8
@H5O_init_g = external global i8, align 1
@H5_libterm_g = external global i8, align 1

; Function Attrs: nounwind uwtable
define internal i32 @H5O__copy_free_comm_dt_cb(ptr noundef %0, ptr noundef %1, ptr noundef %2) #0 {
  %4 = alloca ptr, align 8
  %5 = alloca ptr, align 8
  %6 = alloca ptr, align 8
  %7 = alloca ptr, align 8
  %8 = alloca ptr, align 8
  store ptr %0, ptr %4, align 8, !tbaa !30
  store ptr %1, ptr %5, align 8, !tbaa !30
  store ptr %2, ptr %6, align 8, !tbaa !30
  call void @llvm.lifetime.start.p0(i64 8, ptr %7) #8
  %9 = load ptr, ptr %4, align 8, !tbaa !30
  store ptr %9, ptr %7, align 8, !tbaa !154
  call void @llvm.lifetime.start.p0(i64 8, ptr %8) #8
  %10 = load ptr, ptr %5, align 8, !tbaa !30
  store ptr %10, ptr %8, align 8, !tbaa !136
  %11 = load i8, ptr @H5O_init_g, align 1, !tbaa !12, !range !16, !noundef !17
  %12 = trunc i8 %11 to i1
  br i1 %12, label %17, label %13

13:                                               ; preds = %3
  %14 = load i8, ptr @H5_libterm_g, align 1, !tbaa !12, !range !16, !noundef !17
  %15 = trunc i8 %14 to i1
  %16 = xor i1 %15, true
  br label %17

17:                                               ; preds = %13, %3
  %18 = phi i1 [ true, %3 ], [ %16, %13 ]
  %19 = xor i1 %18, true
  %20 = xor i1 %19, true
  %21 = zext i1 %20 to i32
  %22 = sext i32 %21 to i64
  %23 = call i64 @llvm.expect.i64(i64 %22, i64 1)
  %24 = icmp ne i64 %23, 0
  br i1 %24, label %25, label %36

25:                                               ; preds = %17
  %26 = load ptr, ptr %8, align 8, !tbaa !136
  %27 = getelementptr inbounds nuw %struct.H5O_copy_search_comm_dt_key_t, ptr %26, i32 0, i32 0
  %28 = load ptr, ptr %27, align 8, !tbaa !138
  %29 = call ptr @H5O_msg_free(i32 noundef 3, ptr noundef %28)
  %30 = load ptr, ptr %8, align 8, !tbaa !136
  %31 = getelementptr inbounds nuw %struct.H5O_copy_search_comm_dt_key_t, ptr %30, i32 0, i32 0
  store ptr %29, ptr %31, align 8, !tbaa !138
  %32 = load ptr, ptr %8, align 8, !tbaa !136
  %33 = call ptr @H5FL_reg_free(ptr noundef @H5_H5O_copy_search_comm_dt_key_t_reg_free_list, ptr noundef %32)
  store ptr %33, ptr %8, align 8, !tbaa !136
  %34 = load ptr, ptr %7, align 8, !tbaa !154
  %35 = call ptr @H5FL_reg_free(ptr noundef @H5_haddr_t_reg_free_list, ptr noundef %34)
  store ptr %35, ptr %7, align 8, !tbaa !154
  br label %36

36:                                               ; preds = %25, %17
  call void @llvm.lifetime.end.p0(i64 8, ptr %8) #8
  call void @llvm.lifetime.end.p0(i64 8, ptr %7) #8
  ret i32 0
}