; Function Attrs: nounwind uwtable
define internal noundef i32 @H5O__copy_free_comm_dt_cb(ptr noundef %0, ptr noundef %1, ptr readnone captures(none) %2) #0 {
  %4 = load i8, ptr @H5O_init_g, align 1, !tbaa !3, !range !7, !noundef !8
  %5 = trunc nuw i8 %4 to i1
  %6 = load i8, ptr @H5_libterm_g, align 1, !range !7
  %7 = trunc nuw i8 %6 to i1
  %8 = xor i1 %7, true
  %9 = select i1 %5, i1 true, i1 %8
  br i1 %9, label %10, label %15, !prof !9

10:                                               ; preds = %3
  %11 = load ptr, ptr %1, align 8, !tbaa !62
  %12 = tail call ptr @H5O_msg_free(i32 noundef 3, ptr noundef %11) #7
  store ptr %12, ptr %1, align 8, !tbaa !62
  %13 = tail call ptr @H5FL_reg_free(ptr noundef nonnull @H5_H5O_copy_search_comm_dt_key_t_reg_free_list, ptr noundef nonnull %1) #7
  %14 = tail call ptr @H5FL_reg_free(ptr noundef nonnull @H5_haddr_t_reg_free_list, ptr noundef %0) #7
  br label %15

15:                                               ; preds = %10, %3
  ret i32 0
}